; Function Attrs: mustprogress nofree norecurse nosync nounwind willreturn memory(argmem: read) uwtable
define range(i32 0, 4) i32 @wolfSSL_get_shutdown(ptr noundef readonly captures(address_is_null) %0) local_unnamed_addr #9 {
  %.not = icmp eq ptr %0, null
  br i1 %.not, label %9, label %2

2:                                                ; preds = %1
  %3 = getelementptr inbounds nuw i8, ptr %0, i64 1024
  %4 = load i64, ptr %3, align 8
  %5 = trunc i64 %4 to i32
  %6 = lshr i32 %5, 21
  %spec.select = and i32 %6, 1
  %7 = and i64 %4, 1310720
  %or.cond = icmp eq i64 %7, 0
  %8 = or disjoint i32 %spec.select, 2
  %spec.select10 = select i1 %or.cond, i32 %spec.select, i32 %8
  br label %9

9:                                                ; preds = %2, %1
  %.1 = phi i32 [ 0, %1 ], [ %spec.select10, %2 ]
  ret i32 %.1
}